; Function Attrs: nounwind uwtable
define internal void @wavpack_decode_flush(ptr noundef readonly captures(none) %0) #0 {
  %2 = getelementptr inbounds nuw i8, ptr %0, i64 32
  %3 = load ptr, ptr %2, align 8, !tbaa !4
  %4 = getelementptr inbounds nuw i8, ptr %3, i64 64
  store i32 0, ptr %4, align 8, !tbaa !35
  %5 = getelementptr inbounds nuw i8, ptr %3, i64 32
  tail call void @av_refstruct_unref(ptr noundef nonnull %5) #12
  %6 = getelementptr inbounds nuw i8, ptr %3, i64 40
  tail call void @av_refstruct_unref(ptr noundef nonnull %6) #12
  %7 = getelementptr inbounds nuw i8, ptr %3, i64 48
  tail call void @av_refstruct_unref(ptr noundef nonnull %7) #12
  ret void
}